; ModuleID = '19/2034.c'
source_filename = "19/2034.c"
target datalayout = "e-m:e-p270:32:32-p271:32:32-p272:64:64-i64:64-f80:128-n8:16:32:64-S128"
target triple = "x86_64-pc-linux-gnu"

@.str = private unnamed_addr constant [4 x i8] c"%s \00", align 1
@.str.1 = private unnamed_addr constant [3 x i8] c"%s\00", align 1

; Function Attrs: noinline nounwind uwtable
define dso_local i32 @main() #0 {
  %1 = alloca i32, align 4
  %2 = alloca [200 x i8], align 16
  %3 = alloca [100 x i8], align 16
  %4 = alloca [100 x i8], align 16
  %5 = alloca [100 x [100 x i8]], align 16
  %6 = alloca i32, align 4
  %7 = alloca i32, align 4
  %8 = alloca i32, align 4
  %9 = alloca i32, align 4
  store i32 0, i32* %1, align 4
  store i32 0, i32* %8, align 4
  %10 = getelementptr inbounds [200 x i8], [200 x i8]* %2, i64 0, i64 0
  %11 = call i32 (i8*, ...) bitcast (i32 (...)* @gets to i32 (i8*, ...)*)(i8* %10)
  %12 = getelementptr inbounds [100 x i8], [100 x i8]* %3, i64 0, i64 0
  %13 = call i32 (i8*, ...) bitcast (i32 (...)* @gets to i32 (i8*, ...)*)(i8* %12)
  %14 = getelementptr inbounds [100 x i8], [100 x i8]* %4, i64 0, i64 0
  %15 = call i32 (i8*, ...) bitcast (i32 (...)* @gets to i32 (i8*, ...)*)(i8* %14)
  %16 = getelementptr inbounds [200 x i8], [200 x i8]* %2, i64 0, i64 0
  %17 = call i64 @strlen(i8* %16) #3
  %18 = trunc i64 %17 to i32
  store i32 %18, i32* %6, align 4
  store i32 0, i32* %9, align 4
  store i32 0, i32* %7, align 4
  br label %19

19:                                               ; preds = %61, %0
  %20 = load i32, i32* %9, align 4
  %21 = load i32, i32* %6, align 4
  %22 = add nsw i32 %21, 1
  %23 = icmp slt i32 %20, %22
  br i1 %23, label %24, label %64

24:                                               ; preds = %19
  %25 = load i32, i32* %9, align 4
  %26 = sext i32 %25 to i64
  %27 = getelementptr inbounds [200 x i8], [200 x i8]* %2, i64 0, i64 %26
  %28 = load i8, i8* %27, align 1
  %29 = sext i8 %28 to i32
  %30 = icmp eq i32 %29, 32
  br i1 %30, label %38, label %31

31:                                               ; preds = %24
  %32 = load i32, i32* %9, align 4
  %33 = sext i32 %32 to i64
  %34 = getelementptr inbounds [200 x i8], [200 x i8]* %2, i64 0, i64 %33
  %35 = load i8, i8* %34, align 1
  %36 = sext i8 %35 to i32
  %37 = icmp eq i32 %36, 0
  br i1 %37, label %38, label %47

38:                                               ; preds = %31, %24
  %39 = load i32, i32* %7, align 4
  %40 = sext i32 %39 to i64
  %41 = getelementptr inbounds [100 x [100 x i8]], [100 x [100 x i8]]* %5, i64 0, i64 %40
  %42 = load i32, i32* %8, align 4
  %43 = sext i32 %42 to i64
  %44 = getelementptr inbounds [100 x i8], [100 x i8]* %41, i64 0, i64 %43
  store i8 0, i8* %44, align 1
  %45 = load i32, i32* %7, align 4
  %46 = add nsw i32 %45, 1
  store i32 %46, i32* %7, align 4
  store i32 0, i32* %8, align 4
  br label %60

47:                                               ; preds = %31
  %48 = load i32, i32* %9, align 4
  %49 = sext i32 %48 to i64
  %50 = getelementptr inbounds [200 x i8], [200 x i8]* %2, i64 0, i64 %49
  %51 = load i8, i8* %50, align 1
  %52 = load i32, i32* %7, align 4
  %53 = sext i32 %52 to i64
  %54 = getelementptr inbounds [100 x [100 x i8]], [100 x [100 x i8]]* %5, i64 0, i64 %53
  %55 = load i32, i32* %8, align 4
  %56 = sext i32 %55 to i64
  %57 = getelementptr inbounds [100 x i8], [100 x i8]* %54, i64 0, i64 %56
  store i8 %51, i8* %57, align 1
  %58 = load i32, i32* %8, align 4
  %59 = add nsw i32 %58, 1
  store i32 %59, i32* %8, align 4
  br label %60

60:                                               ; preds = %47, %38
  br label %61

61:                                               ; preds = %60
  %62 = load i32, i32* %9, align 4
  %63 = add nsw i32 %62, 1
  store i32 %63, i32* %9, align 4
  br label %19

64:                                               ; preds = %19
  store i32 0, i32* %9, align 4
  br label %65

65:                                               ; preds = %88, %64
  %66 = load i32, i32* %9, align 4
  %67 = load i32, i32* %7, align 4
  %68 = sub nsw i32 %67, 1
  %69 = icmp slt i32 %66, %68
  br i1 %69, label %70, label %91

70:                                               ; preds = %65
  %71 = load i32, i32* %9, align 4
  %72 = sext i32 %71 to i64
  %73 = getelementptr inbounds [100 x [100 x i8]], [100 x [100 x i8]]* %5, i64 0, i64 %72
  %74 = getelementptr inbounds [100 x i8], [100 x i8]* %73, i64 0, i64 0
  %75 = getelementptr inbounds [100 x i8], [100 x i8]* %3, i64 0, i64 0
  %76 = call i32 @strcmp(i8* %74, i8* %75) #3
  %77 = icmp eq i32 %76, 0
  br i1 %77, label %78, label %81

78:                                               ; preds = %70
  %79 = getelementptr inbounds [100 x i8], [100 x i8]* %4, i64 0, i64 0
  %80 = call i32 (i8*, ...) @printf(i8* getelementptr inbounds ([4 x i8], [4 x i8]* @.str, i64 0, i64 0), i8* %79)
  br label %87

81:                                               ; preds = %70
  %82 = load i32, i32* %9, align 4
  %83 = sext i32 %82 to i64
  %84 = getelementptr inbounds [100 x [100 x i8]], [100 x [100 x i8]]* %5, i64 0, i64 %83
  %85 = getelementptr inbounds [100 x i8], [100 x i8]* %84, i64 0, i64 0
  %86 = call i32 (i8*, ...) @printf(i8* getelementptr inbounds ([4 x i8], [4 x i8]* @.str, i64 0, i64 0), i8* %85)
  br label %87

87:                                               ; preds = %81, %78
  br label %88

88:                                               ; preds = %87
  %89 = load i32, i32* %9, align 4
  %90 = add nsw i32 %89, 1
  store i32 %90, i32* %9, align 4
  br label %65

91:                                               ; preds = %65
  %92 = load i32, i32* %9, align 4
  %93 = sext i32 %92 to i64
  %94 = getelementptr inbounds [100 x [100 x i8]], [100 x [100 x i8]]* %5, i64 0, i64 %93
  %95 = getelementptr inbounds [100 x i8], [100 x i8]* %94, i64 0, i64 0
  %96 = getelementptr inbounds [100 x i8], [100 x i8]* %3, i64 0, i64 0
  %97 = call i32 @strcmp(i8* %95, i8* %96) #3
  %98 = icmp eq i32 %97, 0
  br i1 %98, label %99, label %102

99:                                               ; preds = %91
  %100 = getelementptr inbounds [100 x i8], [100 x i8]* %4, i64 0, i64 0
  %101 = call i32 (i8*, ...) @printf(i8* getelementptr inbounds ([3 x i8], [3 x i8]* @.str.1, i64 0, i64 0), i8* %100)
  br label %108

102:                                              ; preds = %91
  %103 = load i32, i32* %9, align 4
  %104 = sext i32 %103 to i64
  %105 = getelementptr inbounds [100 x [100 x i8]], [100 x [100 x i8]]* %5, i64 0, i64 %104
  %106 = getelementptr inbounds [100 x i8], [100 x i8]* %105, i64 0, i64 0
  %107 = call i32 (i8*, ...) @printf(i8* getelementptr inbounds ([3 x i8], [3 x i8]* @.str.1, i64 0, i64 0), i8* %106)
  br label %108

108:                                              ; preds = %102, %99
  ret i32 0
}

declare dso_local i32 @gets(...) #1

; Function Attrs: nounwind readonly
declare dso_local i64 @strlen(i8*) #2

; Function Attrs: nounwind readonly
declare dso_local i32 @strcmp(i8*, i8*) #2

declare dso_local i32 @printf(i8*, ...) #1


!llvm.module.flags = !{!0}
!llvm.ident = !{!1}

!0 = !{i32 1, !"wchar_size", i32 4}
!1 = !{!"clang version 10.0.0-4ubuntu1 "}
