; ModuleID = 'source-C-CXX/18/2034.c'
source_filename = "source-C-CXX/18/2034.c"
target datalayout = "e-m:e-p270:32:32-p271:32:32-p272:64:64-i64:64-f80:128-n8:16:32:64-S128"
target triple = "x86_64-pc-linux-gnu"

@.str = private unnamed_addr constant [4 x i8] c"%s \00", align 1
@.str.1 = private unnamed_addr constant [3 x i8] c"%s\00", align 1

; Function Attrs: nounwind sspstrong uwtable
define dso_local i32 @main() local_unnamed_addr #0 {
  %1 = alloca [200 x i8], align 16
  %2 = alloca [100 x i8], align 16
  %3 = alloca [100 x i8], align 16
  %4 = alloca [100 x [100 x i8]], align 16
  %5 = getelementptr inbounds [200 x i8], [200 x i8]* %1, i64 0, i64 0
  call void @llvm.lifetime.start.p0i8(i64 200, i8* nonnull %5) #5
  %6 = getelementptr inbounds [100 x i8], [100 x i8]* %2, i64 0, i64 0
  call void @llvm.lifetime.start.p0i8(i64 100, i8* nonnull %6) #5
  %7 = getelementptr inbounds [100 x i8], [100 x i8]* %3, i64 0, i64 0
  call void @llvm.lifetime.start.p0i8(i64 100, i8* nonnull %7) #5
  %8 = getelementptr inbounds [100 x [100 x i8]], [100 x [100 x i8]]* %4, i64 0, i64 0, i64 0
  call void @llvm.lifetime.start.p0i8(i64 10000, i8* nonnull %8) #5
  %9 = call i32 (i8*, ...) bitcast (i32 (...)* @gets to i32 (i8*, ...)*)(i8* nonnull %5) #5
  %10 = call i32 (i8*, ...) bitcast (i32 (...)* @gets to i32 (i8*, ...)*)(i8* nonnull %6) #5
  %11 = call i32 (i8*, ...) bitcast (i32 (...)* @gets to i32 (i8*, ...)*)(i8* nonnull %7) #5
  %12 = call i64 @strlen(i8* noundef nonnull %5) #6
  %13 = trunc i64 %12 to i32
  %14 = icmp slt i32 %13, 0
  br i1 %14, label %55, label %15

15:                                               ; preds = %0
  %16 = add i64 %12, 1
  %17 = and i64 %16, 4294967295
  br label %23

18:                                               ; preds = %39
  %19 = icmp sgt i32 %40, 1
  br i1 %19, label %20, label %55

20:                                               ; preds = %18
  %21 = add nsw i32 %40, -1
  %22 = zext i32 %21 to i64
  br label %44

23:                                               ; preds = %15, %39
  %24 = phi i64 [ 0, %15 ], [ %42, %39 ]
  %25 = phi i32 [ 0, %15 ], [ %41, %39 ]
  %26 = phi i32 [ 0, %15 ], [ %40, %39 ]
  %27 = getelementptr inbounds [200 x i8], [200 x i8]* %1, i64 0, i64 %24
  %28 = load i8, i8* %27, align 1, !tbaa !5
  switch i8 %28, label %34 [
    i8 32, label %29
    i8 0, label %29
  ]

29:                                               ; preds = %23, %23
  %30 = sext i32 %26 to i64
  %31 = sext i32 %25 to i64
  %32 = getelementptr inbounds [100 x [100 x i8]], [100 x [100 x i8]]* %4, i64 0, i64 %30, i64 %31
  store i8 0, i8* %32, align 1, !tbaa !5
  %33 = add nsw i32 %26, 1
  br label %39

34:                                               ; preds = %23
  %35 = sext i32 %26 to i64
  %36 = sext i32 %25 to i64
  %37 = getelementptr inbounds [100 x [100 x i8]], [100 x [100 x i8]]* %4, i64 0, i64 %35, i64 %36
  store i8 %28, i8* %37, align 1, !tbaa !5
  %38 = add nsw i32 %25, 1
  br label %39

39:                                               ; preds = %29, %34
  %40 = phi i32 [ %33, %29 ], [ %26, %34 ]
  %41 = phi i32 [ 0, %29 ], [ %38, %34 ]
  %42 = add nuw nsw i64 %24, 1
  %43 = icmp eq i64 %42, %17
  br i1 %43, label %18, label %23, !llvm.loop !8

44:                                               ; preds = %20, %44
  %45 = phi i64 [ 0, %20 ], [ %51, %44 ]
  %46 = getelementptr inbounds [100 x [100 x i8]], [100 x [100 x i8]]* %4, i64 0, i64 %45, i64 0
  %47 = call i32 @strcmp(i8* noundef nonnull %46, i8* noundef nonnull %6) #6
  %48 = icmp eq i32 %47, 0
  %49 = select i1 %48, i8* %7, i8* %46
  %50 = call i32 (i8*, ...) @printf(i8* nonnull dereferenceable(1) getelementptr inbounds ([4 x i8], [4 x i8]* @.str, i64 0, i64 0), i8* nonnull %49)
  %51 = add nuw nsw i64 %45, 1
  %52 = icmp eq i64 %51, %22
  br i1 %52, label %53, label %44, !llvm.loop !10

53:                                               ; preds = %44
  %54 = zext i32 %21 to i64
  br label %55

55:                                               ; preds = %0, %18, %53
  %56 = phi i64 [ %54, %53 ], [ 0, %18 ], [ 0, %0 ]
  %57 = getelementptr inbounds [100 x [100 x i8]], [100 x [100 x i8]]* %4, i64 0, i64 %56, i64 0
  %58 = call i32 @strcmp(i8* noundef nonnull %57, i8* noundef nonnull %6) #6
  %59 = icmp eq i32 %58, 0
  %60 = select i1 %59, i8* %7, i8* %57
  %61 = call i32 (i8*, ...) @printf(i8* nonnull dereferenceable(1) getelementptr inbounds ([3 x i8], [3 x i8]* @.str.1, i64 0, i64 0), i8* nonnull %60)
  call void @llvm.lifetime.end.p0i8(i64 10000, i8* nonnull %8) #5
  call void @llvm.lifetime.end.p0i8(i64 100, i8* nonnull %7) #5
  call void @llvm.lifetime.end.p0i8(i64 100, i8* nonnull %6) #5
  call void @llvm.lifetime.end.p0i8(i64 200, i8* nonnull %5) #5
  ret i32 0
}

; Function Attrs: argmemonly mustprogress nofree nosync nounwind willreturn
declare void @llvm.lifetime.start.p0i8(i64 immarg, i8* nocapture) #1

declare i32 @gets(...) local_unnamed_addr #2

; Function Attrs: argmemonly mustprogress nofree nounwind readonly willreturn
declare i64 @strlen(i8* nocapture) local_unnamed_addr #3

; Function Attrs: argmemonly mustprogress nofree nounwind readonly willreturn
declare i32 @strcmp(i8* nocapture, i8* nocapture) local_unnamed_addr #3

; Function Attrs: nofree nounwind
declare noundef i32 @printf(i8* nocapture noundef readonly, ...) local_unnamed_addr #4

; Function Attrs: argmemonly mustprogress nofree nosync nounwind willreturn
declare void @llvm.lifetime.end.p0i8(i64 immarg, i8* nocapture) #1


!llvm.module.flags = !{!0, !1, !2, !3}
!llvm.ident = !{!4}

!0 = !{i32 1, !"wchar_size", i32 4}
!1 = !{i32 7, !"PIC Level", i32 2}
!2 = !{i32 7, !"PIE Level", i32 2}
!3 = !{i32 7, !"uwtable", i32 1}
!4 = !{!"clang version 13.0.0"}
!5 = !{!6, !6, i64 0}
!6 = !{!"omnipotent char", !7, i64 0}
!7 = !{!"Simple C/C++ TBAA"}
!8 = distinct !{!8, !9}
!9 = !{!"llvm.loop.mustprogress"}
!10 = distinct !{!10, !9}
